target datalayout = "e-m:e-p270:32:32-p271:32:32-p272:64:64-i64:64-i128:128-f80:128-n8:16:32:64-S128"
target triple = "x86_64-pc-linux-gnu"

%struct.AVFormatContext = type { ptr, ptr, ptr, ptr, ptr, i32, i32, ptr, i32, ptr, i32, ptr, ptr, i64, i64, i64, i32, i32, i32, i64, i64, ptr, i32, i32, ptr, i32, i32, i32, i32, ptr, i64, i32, i32, %struct.AVIOInterruptCB, i32, i32, i32, i32, i64, i32, i32, i32, i32, i32, i32, i32, i32, i32, i32, i32, i32, i64, i32, i32, i32, i32, i32, ptr, ptr, ptr, ptr, i32, ptr, ptr, ptr, ptr, i32, ptr, ptr, i64, ptr, ptr, ptr, i64 }
%struct.AVIOInterruptCB = type { ptr, ptr }
%struct.AVProgram = type { i32, i32, i32, ptr, i32, ptr, i32, i32, i32, i32, i64, i64, i64, i32 }

@.str.10 = private unnamed_addr constant [24 x i8] c"new_program: id=0x%04x\0A\00", align 1

; Function Attrs: nounwind uwtable
define ptr @av_new_program(ptr noundef %0, i32 noundef %1) #0 {
  %3 = alloca ptr, align 8
  %4 = alloca ptr, align 8
  %5 = alloca i32, align 4
  %6 = alloca ptr, align 8
  %7 = alloca i32, align 4
  %8 = alloca i32, align 4
  %9 = alloca i32, align 4
  store ptr %0, ptr %4, align 8, !tbaa !47
  store i32 %1, ptr %5, align 4, !tbaa !74
  call void @llvm.lifetime.start.p0(i64 8, ptr %6) #11
  store ptr null, ptr %6, align 8, !tbaa !80
  call void @llvm.lifetime.start.p0(i64 4, ptr %7) #11
  %10 = load ptr, ptr %4, align 8, !tbaa !47
  %11 = load i32, ptr %5, align 4, !tbaa !74
  call void (ptr, i32, ptr, ...) @av_log(ptr noundef %10, i32 noundef 56, ptr noundef @.str.10, i32 noundef %11)
  call void @llvm.lifetime.start.p0(i64 4, ptr %8) #11
  store i32 0, ptr %8, align 4, !tbaa !74
  br label %12

12:                                               ; preds = %40, %2
  %13 = load i32, ptr %8, align 4, !tbaa !74
  %14 = load ptr, ptr %4, align 8, !tbaa !47
  %15 = getelementptr inbounds nuw %struct.AVFormatContext, ptr %14, i32 0, i32 23
  %16 = load i32, ptr %15, align 4, !tbaa !78
  %17 = icmp ult i32 %13, %16
  br i1 %17, label %19, label %18

18:                                               ; preds = %12
  call void @llvm.lifetime.end.p0(i64 4, ptr %8) #11
  br label %43

19:                                               ; preds = %12
  %20 = load ptr, ptr %4, align 8, !tbaa !47
  %21 = getelementptr inbounds nuw %struct.AVFormatContext, ptr %20, i32 0, i32 24
  %22 = load ptr, ptr %21, align 8, !tbaa !79
  %23 = load i32, ptr %8, align 4, !tbaa !74
  %24 = zext i32 %23 to i64
  %25 = getelementptr inbounds nuw ptr, ptr %22, i64 %24
  %26 = load ptr, ptr %25, align 8, !tbaa !80
  %27 = getelementptr inbounds nuw %struct.AVProgram, ptr %26, i32 0, i32 0
  %28 = load i32, ptr %27, align 8, !tbaa !100
  %29 = load i32, ptr %5, align 4, !tbaa !74
  %30 = icmp eq i32 %28, %29
  br i1 %30, label %31, label %39

31:                                               ; preds = %19
  %32 = load ptr, ptr %4, align 8, !tbaa !47
  %33 = getelementptr inbounds nuw %struct.AVFormatContext, ptr %32, i32 0, i32 24
  %34 = load ptr, ptr %33, align 8, !tbaa !79
  %35 = load i32, ptr %8, align 4, !tbaa !74
  %36 = zext i32 %35 to i64
  %37 = getelementptr inbounds nuw ptr, ptr %34, i64 %36
  %38 = load ptr, ptr %37, align 8, !tbaa !80
  store ptr %38, ptr %6, align 8, !tbaa !80
  br label %39

39:                                               ; preds = %31, %19
  br label %40

40:                                               ; preds = %39
  %41 = load i32, ptr %8, align 4, !tbaa !74
  %42 = add i32 %41, 1
  store i32 %42, ptr %8, align 4, !tbaa !74
  br label %12, !llvm.loop !103

43:                                               ; preds = %18
  %44 = load ptr, ptr %6, align 8, !tbaa !80
  %45 = icmp ne ptr %44, null
  br i1 %45, label %78, label %46

46:                                               ; preds = %43
  %47 = call noalias ptr @av_mallocz(i64 noundef 88)
  store ptr %47, ptr %6, align 8, !tbaa !80
  %48 = load ptr, ptr %6, align 8, !tbaa !80
  %49 = icmp ne ptr %48, null
  br i1 %49, label %51, label %50

50:                                               ; preds = %46
  store ptr null, ptr %3, align 8
  store i32 1, ptr %9, align 4
  br label %80

51:                                               ; preds = %46
  %52 = load ptr, ptr %4, align 8, !tbaa !47
  %53 = getelementptr inbounds nuw %struct.AVFormatContext, ptr %52, i32 0, i32 24
  %54 = load ptr, ptr %4, align 8, !tbaa !47
  %55 = getelementptr inbounds nuw %struct.AVFormatContext, ptr %54, i32 0, i32 23
  %56 = load ptr, ptr %6, align 8, !tbaa !80
  %57 = call i32 @av_dynarray_add_nofree(ptr noundef %53, ptr noundef %55, ptr noundef %56)
  store i32 %57, ptr %7, align 4, !tbaa !74
  %58 = load i32, ptr %7, align 4, !tbaa !74
  %59 = icmp slt i32 %58, 0
  br i1 %59, label %60, label %62

60:                                               ; preds = %51
  %61 = load ptr, ptr %6, align 8, !tbaa !80
  call void @av_free(ptr noundef %61)
  store ptr null, ptr %3, align 8
  store i32 1, ptr %9, align 4
  br label %80

62:                                               ; preds = %51
  %63 = load ptr, ptr %6, align 8, !tbaa !80
  %64 = getelementptr inbounds nuw %struct.AVProgram, ptr %63, i32 0, i32 2
  store i32 -16, ptr %64, align 8, !tbaa !104
  %65 = load ptr, ptr %6, align 8, !tbaa !80
  %66 = getelementptr inbounds nuw %struct.AVProgram, ptr %65, i32 0, i32 9
  store i32 -1, ptr %66, align 4, !tbaa !105
  %67 = load i32, ptr %5, align 4, !tbaa !74
  %68 = load ptr, ptr %6, align 8, !tbaa !80
  %69 = getelementptr inbounds nuw %struct.AVProgram, ptr %68, i32 0, i32 0
  store i32 %67, ptr %69, align 8, !tbaa !100
  %70 = load ptr, ptr %6, align 8, !tbaa !80
  %71 = getelementptr inbounds nuw %struct.AVProgram, ptr %70, i32 0, i32 12
  store i64 -9223372036854775808, ptr %71, align 8, !tbaa !106
  %72 = load ptr, ptr %6, align 8, !tbaa !80
  %73 = getelementptr inbounds nuw %struct.AVProgram, ptr %72, i32 0, i32 13
  store i32 0, ptr %73, align 8, !tbaa !107
  %74 = load ptr, ptr %6, align 8, !tbaa !80
  %75 = getelementptr inbounds nuw %struct.AVProgram, ptr %74, i32 0, i32 11
  store i64 -9223372036854775808, ptr %75, align 8, !tbaa !108
  %76 = load ptr, ptr %6, align 8, !tbaa !80
  %77 = getelementptr inbounds nuw %struct.AVProgram, ptr %76, i32 0, i32 10
  store i64 -9223372036854775808, ptr %77, align 8, !tbaa !109
  br label %78

78:                                               ; preds = %62, %43
  %79 = load ptr, ptr %6, align 8, !tbaa !80
  store ptr %79, ptr %3, align 8
  store i32 1, ptr %9, align 4
  br label %80

80:                                               ; preds = %78, %60, %50
  call void @llvm.lifetime.end.p0(i64 4, ptr %7) #11
  call void @llvm.lifetime.end.p0(i64 8, ptr %6) #11
  %81 = load ptr, ptr %3, align 8
  ret ptr %81
}