; Function Attrs: nounwind uwtable
define ptr @av_new_program(ptr noundef %0, i32 noundef %1) local_unnamed_addr #0 {
  tail call void (ptr, i32, ptr, ...) @av_log(ptr noundef %0, i32 noundef 56, ptr noundef nonnull @.str.10, i32 noundef %1) #13
  %3 = getelementptr inbounds nuw i8, ptr %0, i64 164
  %4 = load i32, ptr %3, align 4, !tbaa !67
  %.not32 = icmp eq i32 %4, 0
  br i1 %.not32, label %._crit_edge.thread, label %.lr.ph

.lr.ph:                                           ; preds = %2
  %5 = getelementptr inbounds nuw i8, ptr %0, i64 168
  %6 = load ptr, ptr %5, align 8, !tbaa !70
  %wide.trip.count = zext i32 %4 to i64
  br label %7

._crit_edge:                                      ; preds = %7
  %.not = icmp eq ptr %spec.select, null
  br i1 %.not, label %._crit_edge.thread, label %25

7:                                                ; preds = %.lr.ph, %7
  %indvars.iv = phi i64 [ 0, %.lr.ph ], [ %indvars.iv.next, %7 ]
  %.02730 = phi ptr [ null, %.lr.ph ], [ %spec.select, %7 ]
  %8 = getelementptr inbounds nuw ptr, ptr %6, i64 %indvars.iv
  %9 = load ptr, ptr %8, align 8, !tbaa !71
  %10 = load i32, ptr %9, align 8, !tbaa !88
  %11 = icmp eq i32 %10, %1
  %spec.select = select i1 %11, ptr %9, ptr %.02730
  %indvars.iv.next = add nuw nsw i64 %indvars.iv, 1
  %exitcond.not = icmp eq i64 %indvars.iv.next, %wide.trip.count
  br i1 %exitcond.not, label %._crit_edge, label %7, !llvm.loop !91

._crit_edge.thread:                               ; preds = %2, %._crit_edge
  %12 = tail call noalias ptr @av_mallocz(i64 noundef 88) #13
  %.not29 = icmp eq ptr %12, null
  br i1 %.not29, label %25, label %13

13:                                               ; preds = %._crit_edge.thread
  %14 = getelementptr inbounds nuw i8, ptr %0, i64 168
  %15 = tail call i32 @av_dynarray_add_nofree(ptr noundef nonnull %14, ptr noundef nonnull %3, ptr noundef nonnull %12) #13
  %16 = icmp slt i32 %15, 0
  br i1 %16, label %17, label %18

17:                                               ; preds = %13
  tail call void @av_free(ptr noundef nonnull %12) #13
  br label %25

18:                                               ; preds = %13
  %19 = getelementptr inbounds nuw i8, ptr %12, i64 8
  store i32 -16, ptr %19, align 8, !tbaa !92
  %20 = getelementptr inbounds nuw i8, ptr %12, i64 52
  store i32 -1, ptr %20, align 4, !tbaa !93
  store i32 %1, ptr %12, align 8, !tbaa !88
  %21 = getelementptr inbounds nuw i8, ptr %12, i64 72
  store i64 -9223372036854775808, ptr %21, align 8, !tbaa !94
  %22 = getelementptr inbounds nuw i8, ptr %12, i64 80
  store i32 0, ptr %22, align 8, !tbaa !95
  %23 = getelementptr inbounds nuw i8, ptr %12, i64 64
  store i64 -9223372036854775808, ptr %23, align 8, !tbaa !96
  %24 = getelementptr inbounds nuw i8, ptr %12, i64 56
  store i64 -9223372036854775808, ptr %24, align 8, !tbaa !97
  br label %25

25:                                               ; preds = %._crit_edge, %18, %._crit_edge.thread, %17
  %.026 = phi ptr [ null, %17 ], [ null, %._crit_edge.thread ], [ %spec.select, %._crit_edge ], [ %12, %18 ]
  ret ptr %.026
}